; Function Attrs: nounwind uwtable
define internal noalias ptr @aes_cbc_hmac_sha256_dupctx(ptr noundef %0) #0 {
  %2 = tail call i32 @ossl_prov_is_running() #4
  %.not = icmp eq i32 %2, 0
  br i1 %.not, label %5, label %3

3:                                                ; preds = %1
  %4 = tail call noalias ptr @CRYPTO_memdup(ptr noundef %0, i64 noundef 840, ptr noundef nonnull @.str, i32 noundef 384) #4
  br label %5

5:                                                ; preds = %1, %3
  %.0 = phi ptr [ %4, %3 ], [ null, %1 ]
  ret ptr %.0
}